; Function Attrs: mustprogress nofree norecurse nosync nounwind willreturn memory(readwrite, inaccessiblemem: none) uwtable
define range(i32 0, 4) i32 @Pdr_ManExtendOneEval(ptr noundef readonly captures(none) %0, ptr noundef readonly captures(none) %1) local_unnamed_addr #2 {
  %3 = getelementptr i8, ptr %1, i64 8
  %.val = load ptr, ptr %3, align 8
  %4 = ptrtoint ptr %.val to i64
  %5 = and i64 %4, -2
  %6 = inttoptr i64 %5 to ptr
  %7 = getelementptr i8, ptr %0, i64 376
  %.val25 = load ptr, ptr %7, align 8
  %8 = getelementptr i8, ptr %6, i64 36
  %.val26 = load i32, ptr %8, align 4
  %9 = ashr i32 %.val26, 4
  %10 = sext i32 %9 to i64
  %11 = getelementptr inbounds i32, ptr %.val25, i64 %10
  %12 = load i32, ptr %11, align 4
  %13 = shl i32 %.val26, 1
  %14 = and i32 %13, 30
  %15 = lshr i32 %12, %14
  %16 = and i32 %15, 3
  %17 = and i64 %4, 1
  %.not = icmp eq i64 %17, 0
  %switch.selectcmp.i = icmp eq i32 %16, 2
  %switch.select.i = select i1 %switch.selectcmp.i, i32 1, i32 3
  %switch.selectcmp4.i = icmp eq i32 %16, 1
  %switch.select5.i = select i1 %switch.selectcmp4.i, i32 2, i32 %switch.select.i
  %.020 = select i1 %.not, i32 %16, i32 %switch.select5.i
  %18 = getelementptr i8, ptr %1, i64 24
  %.val23 = load i64, ptr %18, align 8
  %19 = and i64 %.val23, 7
  %.not39 = icmp eq i64 %19, 3
  br i1 %.not39, label %20, label %33

20:                                               ; preds = %2
  %21 = getelementptr i8, ptr %1, i64 36
  %.val31 = load i32, ptr %21, align 4
  %22 = ashr i32 %.val31, 4
  %23 = sext i32 %22 to i64
  %24 = getelementptr inbounds i32, ptr %.val25, i64 %23
  %25 = load i32, ptr %24, align 4
  %26 = shl i32 %.val31, 1
  %27 = and i32 %26, 30
  %28 = lshr i32 %25, %27
  %29 = and i32 %28, 3
  %30 = xor i32 %29, %.020
  %31 = shl nuw i32 %30, %27
  %32 = xor i32 %31, %25
  store i32 %32, ptr %24, align 4
  br label %64

33:                                               ; preds = %2
  %34 = getelementptr i8, ptr %1, i64 16
  %.val24 = load ptr, ptr %34, align 8
  %35 = ptrtoint ptr %.val24 to i64
  %36 = and i64 %35, -2
  %37 = inttoptr i64 %36 to ptr
  %38 = getelementptr i8, ptr %37, i64 36
  %.val28 = load i32, ptr %38, align 4
  %39 = ashr i32 %.val28, 4
  %40 = sext i32 %39 to i64
  %41 = getelementptr inbounds i32, ptr %.val25, i64 %40
  %42 = load i32, ptr %41, align 4
  %43 = shl i32 %.val28, 1
  %44 = and i32 %43, 30
  %45 = lshr i32 %42, %44
  %46 = and i32 %45, 3
  %47 = and i64 %35, 1
  %.not22 = icmp eq i64 %47, 0
  %switch.selectcmp.i35 = icmp eq i32 %46, 2
  %switch.select.i36 = select i1 %switch.selectcmp.i35, i32 1, i32 3
  %switch.selectcmp4.i37 = icmp eq i32 %46, 1
  %switch.select5.i38 = select i1 %switch.selectcmp4.i37, i32 2, i32 %switch.select.i36
  %.019 = select i1 %.not22, i32 %46, i32 %switch.select5.i38
  %48 = icmp eq i32 %.020, 1
  %49 = icmp eq i32 %.019, 1
  %or.cond.i = or i1 %48, %49
  %50 = icmp eq i32 %.020, 2
  %51 = icmp eq i32 %.019, 2
  %or.cond3.i = and i1 %50, %51
  %..i = select i1 %or.cond3.i, i32 2, i32 3
  %.0.i = select i1 %or.cond.i, i32 1, i32 %..i
  %52 = getelementptr i8, ptr %1, i64 36
  %.val33 = load i32, ptr %52, align 4
  %53 = ashr i32 %.val33, 4
  %54 = sext i32 %53 to i64
  %55 = getelementptr inbounds i32, ptr %.val25, i64 %54
  %56 = load i32, ptr %55, align 4
  %57 = shl i32 %.val33, 1
  %58 = and i32 %57, 30
  %59 = lshr i32 %56, %58
  %60 = and i32 %59, 3
  %61 = xor i32 %.0.i, %60
  %62 = shl nuw i32 %61, %58
  %63 = xor i32 %62, %56
  store i32 %63, ptr %55, align 4
  br label %64

64:                                               ; preds = %33, %20
  %.0 = phi i32 [ %.020, %20 ], [ %.0.i, %33 ]
  ret i32 %.0
}